target datalayout = "e-m:e-p270:32:32-p271:32:32-p272:64:64-i64:64-i128:128-f80:128-n8:16:32:64-S128"
target triple = "x86_64-pc-linux-gnu"

%"class.std::basic_istream" = type { ptr, i64, %"class.std::basic_ios" }
%"class.std::basic_ios" = type { %"class.std::ios_base", ptr, i8, i8, ptr, ptr, ptr, ptr }
%"class.std::ios_base" = type { ptr, i64, i64, i32, i32, i32, ptr, %"struct.std::ios_base::_Words", [8 x %"struct.std::ios_base::_Words"], i32, ptr, %"class.std::locale" }
%"struct.std::ios_base::_Words" = type { ptr, i64 }
%"class.std::locale" = type { ptr }
%"class.std::basic_ostream" = type { ptr, %"class.std::basic_ios" }
%class.V3LexerBase = type <{ %class.FlexLexer.base, i32, i32, [4 x i8], ptr, %"class.std::basic_istream", %"class.std::basic_ostream", i8, [3 x i8], i32, ptr, i32, i32, i32, [4 x i8], i64, i64, ptr, i32, [4 x i8], ptr, ptr, ptr, ptr, ptr, i32, i32, i32, i32, i32, i32, i32, [4 x i8] }>
%class.FlexLexer.base = type <{ ptr, ptr, i32, i32, i32 }>
%class.FlexLexer = type <{ ptr, ptr, i32, i32, i32, [4 x i8] }>
%struct.yy_buffer_state = type { ptr, ptr, ptr, i32, i32, i32, i32, i32, i32, i32, i32, i32 }

@.str.27 = private unnamed_addr constant [32 x i8] c"flex scanner push-back overflow\00", align 1

; Function Attrs: mustprogress uwtable
define dso_local void @_ZN11V3LexerBase7yyunputEiPc(ptr noundef nonnull align 8 dereferenceable(732) %0, i32 noundef %1, ptr noundef %2) #5 align 2 {
  %4 = alloca ptr, align 8
  %5 = alloca i32, align 4
  %6 = alloca ptr, align 8
  %7 = alloca ptr, align 8
  %8 = alloca i32, align 4
  %9 = alloca ptr, align 8
  %10 = alloca ptr, align 8
  store ptr %0, ptr %4, align 8
  store i32 %1, ptr %5, align 4
  store ptr %2, ptr %6, align 8
  %11 = load ptr, ptr %4, align 8
  %12 = getelementptr inbounds %class.V3LexerBase, ptr %11, i32 0, i32 10
  %13 = load ptr, ptr %12, align 8
  store ptr %13, ptr %7, align 8
  %14 = getelementptr inbounds %class.V3LexerBase, ptr %11, i32 0, i32 7
  %15 = load i8, ptr %14, align 8
  %16 = load ptr, ptr %7, align 8
  store i8 %15, ptr %16, align 1
  %17 = load ptr, ptr %7, align 8
  %18 = getelementptr inbounds %class.V3LexerBase, ptr %11, i32 0, i32 17
  %19 = load ptr, ptr %18, align 8
  %20 = getelementptr inbounds %class.V3LexerBase, ptr %11, i32 0, i32 15
  %21 = load i64, ptr %20, align 8
  %22 = getelementptr inbounds ptr, ptr %19, i64 %21
  %23 = load ptr, ptr %22, align 8
  %24 = getelementptr inbounds %struct.yy_buffer_state, ptr %23, i32 0, i32 1
  %25 = load ptr, ptr %24, align 8
  %26 = getelementptr inbounds i8, ptr %25, i64 2
  %27 = icmp ult ptr %17, %26
  br i1 %27, label %28, label %130

28:                                               ; preds = %3
  %29 = getelementptr inbounds %class.V3LexerBase, ptr %11, i32 0, i32 9
  %30 = load i32, ptr %29, align 4
  %31 = add nsw i32 %30, 2
  store i32 %31, ptr %8, align 4
  %32 = getelementptr inbounds %class.V3LexerBase, ptr %11, i32 0, i32 17
  %33 = load ptr, ptr %32, align 8
  %34 = getelementptr inbounds %class.V3LexerBase, ptr %11, i32 0, i32 15
  %35 = load i64, ptr %34, align 8
  %36 = getelementptr inbounds ptr, ptr %33, i64 %35
  %37 = load ptr, ptr %36, align 8
  %38 = getelementptr inbounds %struct.yy_buffer_state, ptr %37, i32 0, i32 1
  %39 = load ptr, ptr %38, align 8
  %40 = getelementptr inbounds %class.V3LexerBase, ptr %11, i32 0, i32 17
  %41 = load ptr, ptr %40, align 8
  %42 = getelementptr inbounds %class.V3LexerBase, ptr %11, i32 0, i32 15
  %43 = load i64, ptr %42, align 8
  %44 = getelementptr inbounds ptr, ptr %41, i64 %43
  %45 = load ptr, ptr %44, align 8
  %46 = getelementptr inbounds %struct.yy_buffer_state, ptr %45, i32 0, i32 3
  %47 = load i32, ptr %46, align 8
  %48 = add nsw i32 %47, 2
  %49 = sext i32 %48 to i64
  %50 = getelementptr inbounds i8, ptr %39, i64 %49
  store ptr %50, ptr %9, align 8
  %51 = getelementptr inbounds %class.V3LexerBase, ptr %11, i32 0, i32 17
  %52 = load ptr, ptr %51, align 8
  %53 = getelementptr inbounds %class.V3LexerBase, ptr %11, i32 0, i32 15
  %54 = load i64, ptr %53, align 8
  %55 = getelementptr inbounds ptr, ptr %52, i64 %54
  %56 = load ptr, ptr %55, align 8
  %57 = getelementptr inbounds %struct.yy_buffer_state, ptr %56, i32 0, i32 1
  %58 = load ptr, ptr %57, align 8
  %59 = load i32, ptr %8, align 4
  %60 = sext i32 %59 to i64
  %61 = getelementptr inbounds i8, ptr %58, i64 %60
  store ptr %61, ptr %10, align 8
  br label %62

62:                                               ; preds = %73, %28
  %63 = load ptr, ptr %10, align 8
  %64 = getelementptr inbounds %class.V3LexerBase, ptr %11, i32 0, i32 17
  %65 = load ptr, ptr %64, align 8
  %66 = getelementptr inbounds %class.V3LexerBase, ptr %11, i32 0, i32 15
  %67 = load i64, ptr %66, align 8
  %68 = getelementptr inbounds ptr, ptr %65, i64 %67
  %69 = load ptr, ptr %68, align 8
  %70 = getelementptr inbounds %struct.yy_buffer_state, ptr %69, i32 0, i32 1
  %71 = load ptr, ptr %70, align 8
  %72 = icmp ugt ptr %63, %71
  br i1 %72, label %73, label %79

73:                                               ; preds = %62
  %74 = load ptr, ptr %10, align 8
  %75 = getelementptr inbounds i8, ptr %74, i32 -1
  store ptr %75, ptr %10, align 8
  %76 = load i8, ptr %75, align 1
  %77 = load ptr, ptr %9, align 8
  %78 = getelementptr inbounds i8, ptr %77, i32 -1
  store ptr %78, ptr %9, align 8
  store i8 %76, ptr %78, align 1
  br label %62, !llvm.loop !15

79:                                               ; preds = %62
  %80 = load ptr, ptr %9, align 8
  %81 = load ptr, ptr %10, align 8
  %82 = ptrtoint ptr %80 to i64
  %83 = ptrtoint ptr %81 to i64
  %84 = sub i64 %82, %83
  %85 = trunc i64 %84 to i32
  %86 = load ptr, ptr %7, align 8
  %87 = sext i32 %85 to i64
  %88 = getelementptr inbounds i8, ptr %86, i64 %87
  store ptr %88, ptr %7, align 8
  %89 = load ptr, ptr %9, align 8
  %90 = load ptr, ptr %10, align 8
  %91 = ptrtoint ptr %89 to i64
  %92 = ptrtoint ptr %90 to i64
  %93 = sub i64 %91, %92
  %94 = trunc i64 %93 to i32
  %95 = load ptr, ptr %6, align 8
  %96 = sext i32 %94 to i64
  %97 = getelementptr inbounds i8, ptr %95, i64 %96
  store ptr %97, ptr %6, align 8
  %98 = getelementptr inbounds %class.V3LexerBase, ptr %11, i32 0, i32 17
  %99 = load ptr, ptr %98, align 8
  %100 = getelementptr inbounds %class.V3LexerBase, ptr %11, i32 0, i32 15
  %101 = load i64, ptr %100, align 8
  %102 = getelementptr inbounds ptr, ptr %99, i64 %101
  %103 = load ptr, ptr %102, align 8
  %104 = getelementptr inbounds %struct.yy_buffer_state, ptr %103, i32 0, i32 3
  %105 = load i32, ptr %104, align 8
  %106 = getelementptr inbounds %class.V3LexerBase, ptr %11, i32 0, i32 9
  store i32 %105, ptr %106, align 4
  %107 = getelementptr inbounds %class.V3LexerBase, ptr %11, i32 0, i32 17
  %108 = load ptr, ptr %107, align 8
  %109 = getelementptr inbounds %class.V3LexerBase, ptr %11, i32 0, i32 15
  %110 = load i64, ptr %109, align 8
  %111 = getelementptr inbounds ptr, ptr %108, i64 %110
  %112 = load ptr, ptr %111, align 8
  %113 = getelementptr inbounds %struct.yy_buffer_state, ptr %112, i32 0, i32 4
  store i32 %105, ptr %113, align 4
  %114 = load ptr, ptr %7, align 8
  %115 = getelementptr inbounds %class.V3LexerBase, ptr %11, i32 0, i32 17
  %116 = load ptr, ptr %115, align 8
  %117 = getelementptr inbounds %class.V3LexerBase, ptr %11, i32 0, i32 15
  %118 = load i64, ptr %117, align 8
  %119 = getelementptr inbounds ptr, ptr %116, i64 %118
  %120 = load ptr, ptr %119, align 8
  %121 = getelementptr inbounds %struct.yy_buffer_state, ptr %120, i32 0, i32 1
  %122 = load ptr, ptr %121, align 8
  %123 = getelementptr inbounds i8, ptr %122, i64 2
  %124 = icmp ult ptr %114, %123
  br i1 %124, label %125, label %129

125:                                              ; preds = %79
  %126 = load ptr, ptr %11, align 8
  %127 = getelementptr inbounds ptr, ptr %126, i64 14
  %128 = load ptr, ptr %127, align 8
  call void %128(ptr noundef nonnull align 8 dereferenceable(732) %11, ptr noundef @.str.27)
  br label %129

129:                                              ; preds = %125, %79
  br label %130

130:                                              ; preds = %129, %3
  %131 = load i32, ptr %5, align 4
  %132 = trunc i32 %131 to i8
  %133 = load ptr, ptr %7, align 8
  %134 = getelementptr inbounds i8, ptr %133, i32 -1
  store ptr %134, ptr %7, align 8
  store i8 %132, ptr %134, align 1
  %135 = load ptr, ptr %6, align 8
  %136 = getelementptr inbounds %class.FlexLexer, ptr %11, i32 0, i32 1
  store ptr %135, ptr %136, align 8
  %137 = load ptr, ptr %7, align 8
  %138 = load i8, ptr %137, align 1
  %139 = getelementptr inbounds %class.V3LexerBase, ptr %11, i32 0, i32 7
  store i8 %138, ptr %139, align 8
  %140 = load ptr, ptr %7, align 8
  %141 = getelementptr inbounds %class.V3LexerBase, ptr %11, i32 0, i32 10
  store ptr %140, ptr %141, align 8
  ret void
}