; Function Attrs: mustprogress uwtable
define dso_local void @_ZN11V3LexerBase7yyunputEiPc(ptr noundef nonnull align 8 dereferenceable(732) %0, i32 noundef %1, ptr noundef %2) local_unnamed_addr #4 align 2 {
  %4 = getelementptr inbounds i8, ptr %0, i64 608
  %5 = load ptr, ptr %4, align 8
  %6 = getelementptr inbounds i8, ptr %0, i64 600
  %7 = load i8, ptr %6, align 8
  store i8 %7, ptr %5, align 1
  %8 = getelementptr inbounds i8, ptr %0, i64 648
  %9 = load ptr, ptr %8, align 8
  %10 = getelementptr inbounds i8, ptr %0, i64 632
  %11 = load i64, ptr %10, align 8
  %12 = getelementptr inbounds ptr, ptr %9, i64 %11
  %13 = load ptr, ptr %12, align 8
  %14 = getelementptr inbounds i8, ptr %13, i64 8
  %15 = load ptr, ptr %14, align 8
  %16 = getelementptr inbounds i8, ptr %15, i64 2
  %17 = icmp ult ptr %5, %16
  br i1 %17, label %18, label %62

18:                                               ; preds = %3
  %19 = getelementptr inbounds i8, ptr %0, i64 604
  %20 = load i32, ptr %19, align 4
  %21 = getelementptr inbounds i8, ptr %13, i64 24
  %22 = load i32, ptr %21, align 8
  %23 = sext i32 %22 to i64
  %24 = getelementptr i8, ptr %15, i64 %23
  %25 = getelementptr i8, ptr %24, i64 2
  %26 = sext i32 %20 to i64
  %27 = getelementptr i8, ptr %15, i64 %26
  %28 = getelementptr i8, ptr %27, i64 2
  %29 = icmp ugt ptr %28, %15
  br i1 %29, label %.lr.ph, label %._crit_edge

.lr.ph:                                           ; preds = %18, %.lr.ph
  %.028 = phi ptr [ %30, %.lr.ph ], [ %28, %18 ]
  %.01827 = phi ptr [ %32, %.lr.ph ], [ %25, %18 ]
  %30 = getelementptr inbounds i8, ptr %.028, i64 -1
  %31 = load i8, ptr %30, align 1
  %32 = getelementptr inbounds i8, ptr %.01827, i64 -1
  store i8 %31, ptr %32, align 1
  %33 = load ptr, ptr %8, align 8
  %34 = load i64, ptr %10, align 8
  %35 = getelementptr inbounds ptr, ptr %33, i64 %34
  %36 = load ptr, ptr %35, align 8
  %37 = getelementptr inbounds i8, ptr %36, i64 8
  %38 = load ptr, ptr %37, align 8
  %39 = icmp ugt ptr %30, %38
  br i1 %39, label %.lr.ph, label %._crit_edge.loopexit, !llvm.loop !12

._crit_edge.loopexit:                             ; preds = %.lr.ph
  %.phi.trans.insert = getelementptr inbounds i8, ptr %36, i64 24
  %.pre = load i32, ptr %.phi.trans.insert, align 8
  br label %._crit_edge

._crit_edge:                                      ; preds = %._crit_edge.loopexit, %18
  %40 = phi i32 [ %22, %18 ], [ %.pre, %._crit_edge.loopexit ]
  %.lcssa26 = phi i64 [ %11, %18 ], [ %34, %._crit_edge.loopexit ]
  %.lcssa25 = phi ptr [ %9, %18 ], [ %33, %._crit_edge.loopexit ]
  %.018.lcssa = phi ptr [ %25, %18 ], [ %32, %._crit_edge.loopexit ]
  %.0.lcssa = phi ptr [ %28, %18 ], [ %30, %._crit_edge.loopexit ]
  %41 = getelementptr inbounds ptr, ptr %.lcssa25, i64 %.lcssa26
  %42 = ptrtoint ptr %.018.lcssa to i64
  %43 = ptrtoint ptr %.0.lcssa to i64
  %44 = sub i64 %42, %43
  %sext = shl i64 %44, 32
  %45 = ashr exact i64 %sext, 32
  %46 = getelementptr inbounds i8, ptr %5, i64 %45
  %47 = getelementptr inbounds i8, ptr %2, i64 %45
  store i32 %40, ptr %19, align 4
  %48 = load ptr, ptr %41, align 8
  %49 = getelementptr inbounds i8, ptr %48, i64 28
  store i32 %40, ptr %49, align 4
  %50 = load ptr, ptr %8, align 8
  %51 = load i64, ptr %10, align 8
  %52 = getelementptr inbounds ptr, ptr %50, i64 %51
  %53 = load ptr, ptr %52, align 8
  %54 = getelementptr inbounds i8, ptr %53, i64 8
  %55 = load ptr, ptr %54, align 8
  %56 = getelementptr inbounds i8, ptr %55, i64 2
  %57 = icmp ult ptr %46, %56
  br i1 %57, label %58, label %62

58:                                               ; preds = %._crit_edge
  %59 = load ptr, ptr %0, align 8
  %60 = getelementptr inbounds i8, ptr %59, i64 112
  %61 = load ptr, ptr %60, align 8
  tail call void %61(ptr noundef nonnull align 8 dereferenceable(732) %0, ptr noundef nonnull @.str.27)
  br label %62

62:                                               ; preds = %._crit_edge, %58, %3
  %.020 = phi ptr [ %46, %58 ], [ %46, %._crit_edge ], [ %5, %3 ]
  %.019 = phi ptr [ %47, %58 ], [ %47, %._crit_edge ], [ %2, %3 ]
  %63 = trunc i32 %1 to i8
  %64 = getelementptr inbounds i8, ptr %.020, i64 -1
  store i8 %63, ptr %64, align 1
  %65 = getelementptr inbounds i8, ptr %0, i64 8
  store ptr %.019, ptr %65, align 8
  %66 = load i8, ptr %64, align 1
  store i8 %66, ptr %6, align 8
  store ptr %64, ptr %4, align 8
  ret void
}